target datalayout = "e-m:e-p270:32:32-p271:32:32-p272:64:64-i64:64-i128:128-f80:128-n8:16:32:64-S128"
target triple = "x86_64-pc-linux-gnu"

%struct.RmgrData = type { ptr, ptr, ptr, ptr, ptr, ptr, ptr, ptr }
%struct.XLogRecordBuffer = type { i64, i64, ptr }
%struct.LogicalDecodingContext = type { ptr, ptr, ptr, ptr, ptr, i8, %struct.OutputPluginCallbacks, %struct.OutputPluginOptions, ptr, ptr, ptr, ptr, ptr, ptr, ptr, i8, i8, i8, i8, i8, i64, i32, i8, i8 }
%struct.OutputPluginCallbacks = type { ptr, ptr, ptr, ptr, ptr, ptr, ptr, ptr, ptr, ptr, ptr, ptr, ptr, ptr, ptr, ptr, ptr, ptr, ptr, ptr, ptr }
%struct.OutputPluginOptions = type { i32, i8 }
%struct.XLogReaderState = type { %struct.XLogReaderRoutine, i64, ptr, i64, i64, i64, i64, i64, i64, i64, i64, ptr, ptr, i64, i8, ptr, ptr, ptr, ptr, ptr, i32, %struct.WALSegmentContext, %struct.WALOpenSegment, i32, i64, i32, i64, i32, i64, i32, ptr, i32, ptr, i8, i8 }
%struct.XLogReaderRoutine = type { ptr, ptr, ptr }
%struct.WALSegmentContext = type { [1024 x i8], i32 }
%struct.WALOpenSegment = type { i32, i64, i32 }
%struct.DecodedXLogRecord = type { i64, i8, ptr, i64, i64, %struct.XLogRecord, i16, i32, ptr, i32, i32, [0 x %struct.DecodedBkpBlock] }
%struct.XLogRecord = type { i32, i32, i64, i8, i8, i32 }
%struct.DecodedBkpBlock = type { i8, %struct.RelFileLocator, i32, i32, i32, i8, i8, i8, ptr, i16, i16, i16, i8, i8, ptr, i16, i16 }
%struct.RelFileLocator = type { i32, i32, i32 }

@RmgrTable = external global [0 x %struct.RmgrData], align 8

; Function Attrs: inlinehint nounwind uwtable
define internal zeroext i1 @RmgrIdExists(i8 noundef zeroext %0) #3 {
  %2 = alloca i8, align 1
  store i8 %0, ptr %2, align 1
  %3 = load i8, ptr %2, align 1
  %4 = zext i8 %3 to i64
  %5 = getelementptr inbounds nuw [0 x %struct.RmgrData], ptr @RmgrTable, i64 0, i64 %4
  %6 = getelementptr inbounds nuw %struct.RmgrData, ptr %5, i32 0, i32 0
  %7 = load ptr, ptr %6, align 8
  %8 = icmp ne ptr %7, null
  ret i1 %8
}

; Function Attrs: inlinehint nounwind uwtable
define internal void @GetRmgr(ptr dead_on_unwind noalias writable sret(%struct.RmgrData) align 8 %0, i8 noundef zeroext %1) #3 {
  %3 = alloca i8, align 1
  store i8 %1, ptr %3, align 1
  %4 = load i8, ptr %3, align 1
  %5 = call zeroext i1 @RmgrIdExists(i8 noundef zeroext %4)
  %6 = xor i1 %5, true
  %7 = zext i1 %6 to i32
  %8 = icmp ne i32 %7, 0
  %9 = zext i1 %8 to i32
  %10 = sext i32 %9 to i64
  %11 = call i64 @llvm.expect.i64(i64 %10, i64 0)
  %12 = icmp ne i64 %11, 0
  br i1 %12, label %13, label %15

13:                                               ; preds = %2
  %14 = load i8, ptr %3, align 1
  call void @RmgrNotFound(i8 noundef zeroext %14)
  br label %15

15:                                               ; preds = %13, %2
  %16 = load i8, ptr %3, align 1
  %17 = zext i8 %16 to i64
  %18 = getelementptr inbounds nuw [0 x %struct.RmgrData], ptr @RmgrTable, i64 0, i64 %17
  call void @llvm.memcpy.p0.p0.i64(ptr align 8 %0, ptr align 8 %18, i64 64, i1 false)
  ret void
}

; Function Attrs: nounwind uwtable
define dso_local void @LogicalDecodingProcessRecord(ptr noundef %0, ptr noundef %1) #0 {
  %3 = alloca ptr, align 8
  %4 = alloca ptr, align 8
  %5 = alloca %struct.XLogRecordBuffer, align 8
  %6 = alloca i32, align 4
  %7 = alloca %struct.RmgrData, align 8
  %8 = alloca %struct.RmgrData, align 8
  store ptr %0, ptr %3, align 8
  store ptr %1, ptr %4, align 8
  call void @llvm.lifetime.start.p0(i64 24, ptr %5) #8
  call void @llvm.lifetime.start.p0(i64 4, ptr %6) #8
  call void @llvm.lifetime.start.p0(i64 64, ptr %7) #8
  %9 = load ptr, ptr %3, align 8
  %10 = getelementptr inbounds nuw %struct.LogicalDecodingContext, ptr %9, i32 0, i32 2
  %11 = load ptr, ptr %10, align 8
  %12 = getelementptr inbounds nuw %struct.XLogReaderState, ptr %11, i32 0, i32 3
  %13 = load i64, ptr %12, align 8
  %14 = getelementptr inbounds nuw %struct.XLogRecordBuffer, ptr %5, i32 0, i32 0
  store i64 %13, ptr %14, align 8
  %15 = load ptr, ptr %3, align 8
  %16 = getelementptr inbounds nuw %struct.LogicalDecodingContext, ptr %15, i32 0, i32 2
  %17 = load ptr, ptr %16, align 8
  %18 = getelementptr inbounds nuw %struct.XLogReaderState, ptr %17, i32 0, i32 4
  %19 = load i64, ptr %18, align 8
  %20 = getelementptr inbounds nuw %struct.XLogRecordBuffer, ptr %5, i32 0, i32 1
  store i64 %19, ptr %20, align 8
  %21 = load ptr, ptr %4, align 8
  %22 = getelementptr inbounds nuw %struct.XLogRecordBuffer, ptr %5, i32 0, i32 2
  store ptr %21, ptr %22, align 8
  %23 = load ptr, ptr %4, align 8
  %24 = getelementptr inbounds nuw %struct.XLogReaderState, ptr %23, i32 0, i32 11
  %25 = load ptr, ptr %24, align 8
  %26 = getelementptr inbounds nuw %struct.DecodedXLogRecord, ptr %25, i32 0, i32 7
  %27 = load i32, ptr %26, align 4
  store i32 %27, ptr %6, align 4
  %28 = load i32, ptr %6, align 4
  %29 = icmp ne i32 %28, 0
  br i1 %29, label %30, label %43

30:                                               ; preds = %2
  %31 = load ptr, ptr %3, align 8
  %32 = getelementptr inbounds nuw %struct.LogicalDecodingContext, ptr %31, i32 0, i32 3
  %33 = load ptr, ptr %32, align 8
  %34 = load i32, ptr %6, align 4
  %35 = load ptr, ptr %4, align 8
  %36 = getelementptr inbounds nuw %struct.XLogReaderState, ptr %35, i32 0, i32 11
  %37 = load ptr, ptr %36, align 8
  %38 = getelementptr inbounds nuw %struct.DecodedXLogRecord, ptr %37, i32 0, i32 5
  %39 = getelementptr inbounds nuw %struct.XLogRecord, ptr %38, i32 0, i32 1
  %40 = load i32, ptr %39, align 4
  %41 = getelementptr inbounds nuw %struct.XLogRecordBuffer, ptr %5, i32 0, i32 0
  %42 = load i64, ptr %41, align 8
  call void @ReorderBufferAssignChild(ptr noundef %33, i32 noundef %34, i32 noundef %40, i64 noundef %42)
  br label %43

43:                                               ; preds = %30, %2
  call void @llvm.lifetime.start.p0(i64 64, ptr %8) #8
  %44 = load ptr, ptr %4, align 8
  %45 = getelementptr inbounds nuw %struct.XLogReaderState, ptr %44, i32 0, i32 11
  %46 = load ptr, ptr %45, align 8
  %47 = getelementptr inbounds nuw %struct.DecodedXLogRecord, ptr %46, i32 0, i32 5
  %48 = getelementptr inbounds nuw %struct.XLogRecord, ptr %47, i32 0, i32 4
  %49 = load i8, ptr %48, align 1
  call void @GetRmgr(ptr dead_on_unwind writable sret(%struct.RmgrData) align 8 %8, i8 noundef zeroext %49)
  call void @llvm.memcpy.p0.p0.i64(ptr align 8 %7, ptr align 8 %8, i64 64, i1 false)
  call void @llvm.lifetime.end.p0(i64 64, ptr %8) #8
  %50 = getelementptr inbounds nuw %struct.RmgrData, ptr %7, i32 0, i32 7
  %51 = load ptr, ptr %50, align 8
  %52 = icmp ne ptr %51, null
  br i1 %52, label %53, label %57

53:                                               ; preds = %43
  %54 = getelementptr inbounds nuw %struct.RmgrData, ptr %7, i32 0, i32 7
  %55 = load ptr, ptr %54, align 8
  %56 = load ptr, ptr %3, align 8
  call void %55(ptr noundef %56, ptr noundef %5)
  br label %69

57:                                               ; preds = %43
  %58 = load ptr, ptr %3, align 8
  %59 = getelementptr inbounds nuw %struct.LogicalDecodingContext, ptr %58, i32 0, i32 3
  %60 = load ptr, ptr %59, align 8
  %61 = load ptr, ptr %4, align 8
  %62 = getelementptr inbounds nuw %struct.XLogReaderState, ptr %61, i32 0, i32 11
  %63 = load ptr, ptr %62, align 8
  %64 = getelementptr inbounds nuw %struct.DecodedXLogRecord, ptr %63, i32 0, i32 5
  %65 = getelementptr inbounds nuw %struct.XLogRecord, ptr %64, i32 0, i32 1
  %66 = load i32, ptr %65, align 4
  %67 = getelementptr inbounds nuw %struct.XLogRecordBuffer, ptr %5, i32 0, i32 0
  %68 = load i64, ptr %67, align 8
  call void @ReorderBufferProcessXid(ptr noundef %60, i32 noundef %66, i64 noundef %68)
  br label %69

69:                                               ; preds = %57, %53
  call void @llvm.lifetime.end.p0(i64 64, ptr %7) #8
  call void @llvm.lifetime.end.p0(i64 4, ptr %6) #8
  call void @llvm.lifetime.end.p0(i64 24, ptr %5) #8
  ret void
}