; Function Attrs: nounwind uwtable
define dso_local void @LogicalDecodingProcessRecord(ptr noundef %0, ptr noundef %1) local_unnamed_addr #0 {
  %3 = alloca %struct.XLogRecordBuffer, align 8
  call void @llvm.lifetime.start.p0(i64 24, ptr nonnull %3) #7
  %4 = getelementptr inbounds nuw i8, ptr %0, i64 16
  %5 = load ptr, ptr %4, align 8
  %6 = getelementptr inbounds nuw i8, ptr %5, i64 40
  %7 = load i64, ptr %6, align 8
  store i64 %7, ptr %3, align 8
  %8 = getelementptr inbounds nuw i8, ptr %5, i64 48
  %9 = load i64, ptr %8, align 8
  %10 = getelementptr inbounds nuw i8, ptr %3, i64 8
  store i64 %9, ptr %10, align 8
  %11 = getelementptr inbounds nuw i8, ptr %3, i64 16
  store ptr %1, ptr %11, align 8
  %12 = getelementptr inbounds nuw i8, ptr %1, i64 104
  %13 = load ptr, ptr %12, align 8
  %14 = getelementptr inbounds nuw i8, ptr %13, i64 68
  %15 = load i32, ptr %14, align 4
  %.not = icmp eq i32 %15, 0
  br i1 %.not, label %21, label %16

16:                                               ; preds = %2
  %17 = getelementptr inbounds nuw i8, ptr %0, i64 24
  %18 = load ptr, ptr %17, align 8
  %19 = getelementptr inbounds nuw i8, ptr %13, i64 44
  %20 = load i32, ptr %19, align 4
  tail call void @ReorderBufferAssignChild(ptr noundef %18, i32 noundef %15, i32 noundef %20, i64 noundef %7) #7
  %.pre = load ptr, ptr %12, align 8
  br label %21

21:                                               ; preds = %16, %2
  %22 = phi ptr [ %.pre, %16 ], [ %13, %2 ]
  %23 = getelementptr inbounds nuw i8, ptr %22, i64 57
  %24 = load i8, ptr %23, align 1
  %25 = zext i8 %24 to i64
  %26 = getelementptr inbounds nuw [0 x %struct.RmgrData], ptr @RmgrTable, i64 0, i64 %25
  %27 = load ptr, ptr %26, align 8, !noalias !4
  %.not.i = icmp eq ptr %27, null
  br i1 %.not.i, label %28, label %GetRmgr.exit, !prof !7

28:                                               ; preds = %21
  tail call void @RmgrNotFound(i8 noundef zeroext %24) #7, !noalias !4
  br label %GetRmgr.exit

GetRmgr.exit:                                     ; preds = %21, %28
  %.sroa.3.0..sroa_idx13 = getelementptr inbounds nuw i8, ptr %26, i64 56
  %.sroa.3.0.copyload14 = load ptr, ptr %.sroa.3.0..sroa_idx13, align 8
  %.not12 = icmp eq ptr %.sroa.3.0.copyload14, null
  br i1 %.not12, label %30, label %29

29:                                               ; preds = %GetRmgr.exit
  call void %.sroa.3.0.copyload14(ptr noundef nonnull %0, ptr noundef nonnull %3) #7
  br label %36

30:                                               ; preds = %GetRmgr.exit
  %31 = getelementptr inbounds nuw i8, ptr %0, i64 24
  %32 = load ptr, ptr %31, align 8
  %33 = load ptr, ptr %12, align 8
  %34 = getelementptr inbounds nuw i8, ptr %33, i64 44
  %35 = load i32, ptr %34, align 4
  tail call void @ReorderBufferProcessXid(ptr noundef %32, i32 noundef %35, i64 noundef %7) #7
  br label %36

36:                                               ; preds = %30, %29
  call void @llvm.lifetime.end.p0(i64 24, ptr nonnull %3) #7
  ret void
}